target datalayout = "e-m:e-p270:32:32-p271:32:32-p272:64:64-i64:64-i128:128-f80:128-n8:16:32:64-S128"
target triple = "x86_64-pc-linux-gnu"

%"class.std::basic_string_view" = type { i64, ptr }
%"class.std::__shared_count" = type { ptr }
%"class.std::shared_ptr.500" = type { %"class.std::__shared_ptr.501" }
%"class.std::__shared_ptr.501" = type { ptr, %"class.std::__shared_count" }
%"class.std::shared_ptr.503" = type { %"class.std::__shared_ptr.504" }
%"class.std::__shared_ptr.504" = type { ptr, %"class.std::__shared_count" }
%"class.pkpy::Compiler" = type { %"struct.pkpy::Lexer", %"class.pkpy::stack_no_copy.552", ptr, i8, i32, %"class.std::vector.543" }
%"struct.pkpy::Lexer" = type <{ ptr, %"class.std::shared_ptr.503", ptr, ptr, i32, [4 x i8], %"class.std::vector.543", %"class.pkpy::stack_no_copy.548", i32, [4 x i8] }>
%"class.pkpy::stack_no_copy.548" = type { %"class.pkpy::stack.549" }
%"class.pkpy::stack.549" = type { %"class.pkpy::small_vector_2.550" }
%"class.pkpy::small_vector_2.550" = type { %"class.pkpy::small_vector.551" }
%"class.pkpy::small_vector.551" = type { [32 x i8], ptr, ptr, ptr }
%"class.pkpy::stack_no_copy.552" = type { %"class.pkpy::stack.553" }
%"class.pkpy::stack.553" = type { %"class.std::vector.554" }
%"class.std::vector.554" = type { %"struct.std::_Vector_base.555" }
%"struct.std::_Vector_base.555" = type { %"struct.std::_Vector_base<pkpy::CodeEmitContext, std::allocator<pkpy::CodeEmitContext>>::_Vector_impl" }
%"struct.std::_Vector_base<pkpy::CodeEmitContext, std::allocator<pkpy::CodeEmitContext>>::_Vector_impl" = type { %"struct.std::_Vector_base<pkpy::CodeEmitContext, std::allocator<pkpy::CodeEmitContext>>::_Vector_impl_data" }
%"struct.std::_Vector_base<pkpy::CodeEmitContext, std::allocator<pkpy::CodeEmitContext>>::_Vector_impl_data" = type { ptr, ptr, ptr }
%"class.std::vector.543" = type { %"struct.std::_Vector_base.544" }
%"struct.std::_Vector_base.544" = type { %"struct.std::_Vector_base<pkpy::Token, std::allocator<pkpy::Token>>::_Vector_impl" }
%"struct.std::_Vector_base<pkpy::Token, std::allocator<pkpy::Token>>::_Vector_impl" = type { %"struct.std::_Vector_base<pkpy::Token, std::allocator<pkpy::Token>>::_Vector_impl_data" }
%"struct.std::_Vector_base<pkpy::Token, std::allocator<pkpy::Token>>::_Vector_impl_data" = type { ptr, ptr, ptr }

@_ZTIN4pkpy9ExceptionE = linkonce_odr constant { ptr, ptr } { ptr getelementptr inbounds (ptr, ptr @_ZTVN10__cxxabiv117__class_type_infoE, i64 2), ptr @_ZTSN4pkpy9ExceptionE }, comdat, align 8

; Function Attrs: mustprogress nounwind uwtable
define linkonce_odr void @_ZNSt14__shared_countILN9__gnu_cxx12_Lock_policyE2EEC2Ev(ptr noundef nonnull align 8 dereferenceable(8) %0) unnamed_addr #5 comdat align 2 {
  %2 = alloca ptr, align 8
  store ptr %0, ptr %2, align 8
  %3 = load ptr, ptr %2, align 8
  %4 = getelementptr inbounds %"class.std::__shared_count", ptr %3, i32 0, i32 0
  store ptr null, ptr %4, align 8
  ret void
}

; Function Attrs: mustprogress nounwind uwtable
define linkonce_odr void @_ZNSt12__shared_ptrIN4pkpy10CodeObjectELN9__gnu_cxx12_Lock_policyE2EEC2Ev(ptr noundef nonnull align 8 dereferenceable(16) %0) unnamed_addr #5 comdat align 2 {
  %2 = alloca ptr, align 8
  store ptr %0, ptr %2, align 8
  %3 = load ptr, ptr %2, align 8
  %4 = getelementptr inbounds %"class.std::__shared_ptr.501", ptr %3, i32 0, i32 0
  store ptr null, ptr %4, align 8
  %5 = getelementptr inbounds %"class.std::__shared_ptr.501", ptr %3, i32 0, i32 1
  call void @_ZNSt14__shared_countILN9__gnu_cxx12_Lock_policyE2EEC2Ev(ptr noundef nonnull align 8 dereferenceable(8) %5) #3
  ret void
}

; Function Attrs: mustprogress nounwind uwtable
define linkonce_odr void @_ZNSt10shared_ptrIN4pkpy10CodeObjectEEC2Ev(ptr noundef nonnull align 8 dereferenceable(16) %0) unnamed_addr #5 comdat align 2 {
  %2 = alloca ptr, align 8
  store ptr %0, ptr %2, align 8
  %3 = load ptr, ptr %2, align 8
  call void @_ZNSt12__shared_ptrIN4pkpy10CodeObjectELN9__gnu_cxx12_Lock_policyE2EEC2Ev(ptr noundef nonnull align 8 dereferenceable(16) %3) #3
  ret void
}

; Function Attrs: mustprogress nounwind uwtable
define linkonce_odr void @_ZNSt10shared_ptrIN4pkpy10CodeObjectEEC2EDn(ptr noundef nonnull align 8 dereferenceable(16) %0, ptr %1) unnamed_addr #5 comdat align 2 {
  %3 = alloca ptr, align 8
  %4 = alloca ptr, align 8
  store ptr %0, ptr %3, align 8
  store ptr %1, ptr %4, align 8
  %5 = load ptr, ptr %3, align 8
  call void @_ZNSt10shared_ptrIN4pkpy10CodeObjectEEC2Ev(ptr noundef nonnull align 8 dereferenceable(16) %5) #3
  ret void
}

; Function Attrs: mustprogress uwtable
define void @_ZN4pkpy2VM7compileESt17basic_string_viewIcSt11char_traitsIcEERKNS_3StrENS_11CompileModeEb(ptr dead_on_unwind noalias writable sret(%"class.std::shared_ptr.500") align 8 %0, ptr noundef nonnull align 8 dereferenceable(264913) %1, i64 %2, ptr %3, ptr noundef nonnull align 8 dereferenceable(32) %4, i32 noundef %5, i1 noundef zeroext %6) #4 align 2 personality ptr @__gxx_personality_v0 {
  %8 = alloca ptr, align 8
  %9 = alloca %"class.std::basic_string_view", align 8
  %10 = alloca ptr, align 8
  %11 = alloca ptr, align 8
  %12 = alloca i32, align 4
  %13 = alloca i8, align 1
  %14 = alloca %"class.pkpy::Compiler", align 8
  %15 = alloca %"class.std::basic_string_view", align 8
  %16 = alloca ptr, align 8
  %17 = alloca i32, align 4
  %18 = alloca i32, align 4
  %19 = alloca ptr, align 8
  store ptr %0, ptr %8, align 8
  %20 = getelementptr inbounds { i64, ptr }, ptr %9, i32 0, i32 0
  store i64 %2, ptr %20, align 8
  %21 = getelementptr inbounds { i64, ptr }, ptr %9, i32 0, i32 1
  store ptr %3, ptr %21, align 8
  store ptr %1, ptr %10, align 8
  store ptr %4, ptr %11, align 8
  store i32 %5, ptr %12, align 4
  %22 = zext i1 %6 to i8
  store i8 %22, ptr %13, align 1
  %23 = load ptr, ptr %10, align 8
  call void @llvm.memcpy.p0.p0.i64(ptr align 8 %15, ptr align 8 %9, i64 16, i1 false)
  %24 = load ptr, ptr %11, align 8
  %25 = load i32, ptr %12, align 4
  %26 = load i8, ptr %13, align 1
  %27 = trunc i8 %26 to i1
  %28 = getelementptr inbounds { i64, ptr }, ptr %15, i32 0, i32 0
  %29 = load i64, ptr %28, align 8
  %30 = getelementptr inbounds { i64, ptr }, ptr %15, i32 0, i32 1
  %31 = load ptr, ptr %30, align 8
  call void @_ZN4pkpy8CompilerC1EPNS_2VMESt17basic_string_viewIcSt11char_traitsIcEERKNS_3StrENS_11CompileModeEb(ptr noundef nonnull align 8 dereferenceable(200) %14, ptr noundef %23, i64 %29, ptr %31, ptr noundef nonnull align 8 dereferenceable(32) %24, i32 noundef %25, i1 noundef zeroext %27)
  invoke void @_ZN4pkpy8Compiler7compileEv(ptr dead_on_unwind writable sret(%"class.std::shared_ptr.500") align 8 %0, ptr noundef nonnull align 8 dereferenceable(200) %14)
          to label %32 unwind label %33

32:                                               ; preds = %7
  store i32 1, ptr %18, align 4
  br label %59

33:                                               ; preds = %7
  %34 = landingpad { ptr, i32 }
          cleanup
          catch ptr @_ZTIN4pkpy9ExceptionE
  %35 = extractvalue { ptr, i32 } %34, 0
  store ptr %35, ptr %16, align 8
  %36 = extractvalue { ptr, i32 } %34, 1
  store i32 %36, ptr %17, align 4
  br label %37

37:                                               ; preds = %33
  %38 = load i32, ptr %17, align 4
  %39 = call i32 @llvm.eh.typeid.for.p0(ptr @_ZTIN4pkpy9ExceptionE) #3
  %40 = icmp eq i32 %38, %39
  br i1 %40, label %41, label %60

41:                                               ; preds = %37
  %42 = load ptr, ptr %16, align 8
  %43 = call ptr @__cxa_begin_catch(ptr %42) #3
  store ptr %43, ptr %19, align 8
  %44 = load ptr, ptr %19, align 8
  %45 = invoke noundef ptr @_ZNK4pkpy9Exception4selfEv(ptr noundef nonnull align 8 dereferenceable(88) %44)
          to label %46 unwind label %48

46:                                               ; preds = %41
  invoke void @_ZN4pkpy2VM6_errorEPNS_8PyObjectE(ptr noundef nonnull align 8 dereferenceable(264913) %23, ptr noundef %45)
          to label %47 unwind label %48

47:                                               ; preds = %46
  call void @_ZNSt10shared_ptrIN4pkpy10CodeObjectEEC2EDn(ptr noundef nonnull align 8 dereferenceable(16) %0, ptr null) #3
  store i32 1, ptr %18, align 4
  invoke void @__cxa_end_catch()
          to label %52 unwind label %53

48:                                               ; preds = %46, %41
  %49 = landingpad { ptr, i32 }
          cleanup
  %50 = extractvalue { ptr, i32 } %49, 0
  store ptr %50, ptr %16, align 8
  %51 = extractvalue { ptr, i32 } %49, 1
  store i32 %51, ptr %17, align 4
  invoke void @__cxa_end_catch()
          to label %57 unwind label %66

52:                                               ; preds = %47
  br label %59

53:                                               ; preds = %47
  %54 = landingpad { ptr, i32 }
          cleanup
  %55 = extractvalue { ptr, i32 } %54, 0
  store ptr %55, ptr %16, align 8
  %56 = extractvalue { ptr, i32 } %54, 1
  store i32 %56, ptr %17, align 4
  br label %60

57:                                               ; preds = %48
  br label %60

58:                                               ; No predecessors!
  call void @llvm.trap()
  unreachable

59:                                               ; preds = %52, %32
  call void @_ZN4pkpy8CompilerD2Ev(ptr noundef nonnull align 8 dereferenceable(200) %14) #3
  ret void

60:                                               ; preds = %57, %53, %37
  call void @_ZN4pkpy8CompilerD2Ev(ptr noundef nonnull align 8 dereferenceable(200) %14) #3
  br label %61

61:                                               ; preds = %60
  %62 = load ptr, ptr %16, align 8
  %63 = load i32, ptr %17, align 4
  %64 = insertvalue { ptr, i32 } poison, ptr %62, 0
  %65 = insertvalue { ptr, i32 } %64, i32 %63, 1
  resume { ptr, i32 } %65

66:                                               ; preds = %48
  %67 = landingpad { ptr, i32 }
          catch ptr null
  %68 = extractvalue { ptr, i32 } %67, 0
  call void @__clang_call_terminate(ptr %68) #21
  unreachable
}