; Function Attrs: mustprogress uwtable
define void @_ZN4pkpy2VM7compileESt17basic_string_viewIcSt11char_traitsIcEERKNS_3StrENS_11CompileModeEb(ptr dead_on_unwind noalias writable sret(%"class.std::shared_ptr.500") align 8 %0, ptr noundef nonnull align 8 dereferenceable(264913) %1, i64 %2, ptr %3, ptr noundef nonnull align 8 dereferenceable(32) %4, i32 noundef %5, i1 noundef zeroext %6) local_unnamed_addr #4 align 2 personality ptr @__gxx_personality_v0 {
  %8 = alloca %"class.pkpy::Compiler", align 8
  call void @_ZN4pkpy8CompilerC1EPNS_2VMESt17basic_string_viewIcSt11char_traitsIcEERKNS_3StrENS_11CompileModeEb(ptr noundef nonnull align 8 dereferenceable(200) %8, ptr noundef nonnull %1, i64 %2, ptr %3, ptr noundef nonnull align 8 dereferenceable(32) %4, i32 noundef %5, i1 noundef zeroext %6)
  invoke void @_ZN4pkpy8Compiler7compileEv(ptr dead_on_unwind writable sret(%"class.std::shared_ptr.500") align 8 %0, ptr noundef nonnull align 8 dereferenceable(200) %8)
          to label %24 unwind label %9

9:                                                ; preds = %7
  %10 = landingpad { ptr, i32 }
          cleanup
          catch ptr @_ZTIN4pkpy9ExceptionE
  %11 = extractvalue { ptr, i32 } %10, 1
  %12 = call i32 @llvm.eh.typeid.for.p0(ptr nonnull @_ZTIN4pkpy9ExceptionE) #35
  %13 = icmp eq i32 %11, %12
  br i1 %13, label %14, label %25

14:                                               ; preds = %9
  %15 = extractvalue { ptr, i32 } %10, 0
  %16 = call ptr @__cxa_begin_catch(ptr %15) #35
  %17 = invoke noundef ptr @_ZNK4pkpy9Exception4selfEv(ptr noundef nonnull align 8 dereferenceable(88) %16)
          to label %18 unwind label %20

18:                                               ; preds = %14
  invoke void @_ZN4pkpy2VM6_errorEPNS_8PyObjectE(ptr noundef nonnull align 8 dereferenceable(264913) %1, ptr noundef %17)
          to label %19 unwind label %20

19:                                               ; preds = %18
  call void @llvm.memset.p0.i64(ptr noundef nonnull align 8 dereferenceable(16) %0, i8 0, i64 16, i1 false)
  invoke void @__cxa_end_catch()
          to label %24 unwind label %22

20:                                               ; preds = %18, %14
  %21 = landingpad { ptr, i32 }
          cleanup
  invoke void @__cxa_end_catch()
          to label %25 unwind label %26

22:                                               ; preds = %19
  %23 = landingpad { ptr, i32 }
          cleanup
  br label %25

24:                                               ; preds = %7, %19
  call void @_ZN4pkpy8CompilerD2Ev(ptr noundef nonnull align 8 dereferenceable(200) %8) #35
  ret void

25:                                               ; preds = %20, %22, %9
  %.merged = phi { ptr, i32 } [ %23, %22 ], [ %21, %20 ], [ %10, %9 ]
  call void @_ZN4pkpy8CompilerD2Ev(ptr noundef nonnull align 8 dereferenceable(200) %8) #35
  resume { ptr, i32 } %.merged

26:                                               ; preds = %20
  %27 = landingpad { ptr, i32 }
          catch ptr null
  %28 = extractvalue { ptr, i32 } %27, 0
  call void @__clang_call_terminate(ptr %28) #34
  unreachable
}